; Function Attrs: mustprogress uwtable
define noundef zeroext i1 @_ZN2cv6legacy8tracking12MultiTracker3addESt6vectorINS_3PtrINS1_7TrackerEEESaIS6_EERKNS_11_InputArrayES3_INS_5Rect_IdEESaISD_EE(ptr noundef nonnull align 8 dereferenceable(56) %0, ptr noundef readonly captures(none) %1, ptr noundef nonnull align 8 dereferenceable(24) %2, ptr noundef readonly captures(none) %3) local_unnamed_addr #3 align 2 personality ptr @__gxx_personality_v0 {
  %5 = alloca %"struct.cv::Ptr", align 8
  %6 = getelementptr inbounds nuw i8, ptr %3, i64 8
  %7 = load ptr, ptr %6, align 8, !tbaa !31
  %8 = load ptr, ptr %3, align 8, !tbaa !6
  %.not = icmp eq ptr %7, %8
  br i1 %.not, label %_ZNSt12__shared_ptrIN2cv6legacy8tracking7TrackerELN9__gnu_cxx12_Lock_policyE2EED2Ev.exit._crit_edge, label %.lr.ph

.lr.ph:                                           ; preds = %4
  %9 = getelementptr inbounds nuw i8, ptr %5, i64 8
  br label %20

10:                                               ; preds = %_ZNSt12__shared_ptrIN2cv6legacy8tracking7TrackerELN9__gnu_cxx12_Lock_policyE2EED2Ev.exit
  %11 = add i32 %.0911, 1
  %12 = zext i32 %11 to i64
  %13 = load ptr, ptr %6, align 8, !tbaa !31
  %14 = load ptr, ptr %3, align 8, !tbaa !6
  %15 = ptrtoint ptr %13 to i64
  %16 = ptrtoint ptr %14 to i64
  %17 = sub i64 %15, %16
  %18 = ashr exact i64 %17, 5
  %19 = icmp ugt i64 %18, %12
  br i1 %19, label %20, label %_ZNSt12__shared_ptrIN2cv6legacy8tracking7TrackerELN9__gnu_cxx12_Lock_policyE2EED2Ev.exit._crit_edge, !llvm.loop !42

20:                                               ; preds = %.lr.ph, %10
  %21 = phi ptr [ %8, %.lr.ph ], [ %14, %10 ]
  %22 = phi i64 [ 0, %.lr.ph ], [ %12, %10 ]
  %.0911 = phi i32 [ 0, %.lr.ph ], [ %11, %10 ]
  %23 = load ptr, ptr %1, align 8, !tbaa !11
  %24 = getelementptr inbounds nuw %"struct.cv::Ptr", ptr %23, i64 %22
  %25 = load ptr, ptr %24, align 8, !tbaa !28
  store ptr %25, ptr %5, align 8, !tbaa !28
  %26 = getelementptr inbounds nuw i8, ptr %24, i64 8
  %27 = load ptr, ptr %26, align 8, !tbaa !15
  store ptr %27, ptr %9, align 8, !tbaa !15
  %.not.i.i.i.i = icmp eq ptr %27, null
  br i1 %.not.i.i.i.i, label %_ZN2cv3PtrINS_6legacy8tracking7TrackerEEC2ERKS4_.exit, label %28

28:                                               ; preds = %20
  %29 = getelementptr inbounds nuw i8, ptr %27, i64 8
  %30 = load i8, ptr @__libc_single_threaded, align 1, !tbaa !22
  %.not.i.i.i.i.i = icmp eq i8 %30, 0
  br i1 %.not.i.i.i.i.i, label %34, label %31

31:                                               ; preds = %28
  %32 = load i32, ptr %29, align 4, !tbaa !23
  %33 = add nsw i32 %32, 1
  store i32 %33, ptr %29, align 4, !tbaa !23
  br label %_ZN2cv3PtrINS_6legacy8tracking7TrackerEEC2ERKS4_.exit

34:                                               ; preds = %28
  %35 = atomicrmw volatile add ptr %29, i32 1 acq_rel, align 4
  %.pre = load ptr, ptr %3, align 8, !tbaa !6
  br label %_ZN2cv3PtrINS_6legacy8tracking7TrackerEEC2ERKS4_.exit

_ZN2cv3PtrINS_6legacy8tracking7TrackerEEC2ERKS4_.exit: ; preds = %20, %31, %34
  %36 = phi ptr [ %21, %20 ], [ %21, %31 ], [ %.pre, %34 ]
  %37 = getelementptr inbounds nuw %"class.cv::Rect_", ptr %36, i64 %22
  %38 = invoke noundef zeroext i1 @_ZN2cv6legacy8tracking12MultiTracker3addENS_3PtrINS1_7TrackerEEERKNS_11_InputArrayERKNS_5Rect_IdEE(ptr noundef nonnull align 8 dereferenceable(56) %0, ptr noundef nonnull %5, ptr noundef nonnull align 8 dereferenceable(24) %2, ptr noundef nonnull align 8 dereferenceable(32) %37)
          to label %39 unwind label %62

39:                                               ; preds = %_ZN2cv3PtrINS_6legacy8tracking7TrackerEEC2ERKS4_.exit
  %40 = load ptr, ptr %9, align 8, !tbaa !15
  %.not.i.i = icmp eq ptr %40, null
  br i1 %.not.i.i, label %_ZNSt12__shared_ptrIN2cv6legacy8tracking7TrackerELN9__gnu_cxx12_Lock_policyE2EED2Ev.exit, label %41

41:                                               ; preds = %39
  %42 = getelementptr inbounds nuw i8, ptr %40, i64 8
  %43 = load atomic i64, ptr %42 acquire, align 8
  %44 = icmp eq i64 %43, 4294967297
  %45 = trunc i64 %43 to i32
  br i1 %44, label %46, label %54

46:                                               ; preds = %41
  store i32 0, ptr %42, align 8, !tbaa !18
  %47 = getelementptr inbounds nuw i8, ptr %40, i64 12
  store i32 0, ptr %47, align 4, !tbaa !21
  %48 = load ptr, ptr %40, align 8, !tbaa !3
  %49 = getelementptr inbounds nuw i8, ptr %48, i64 16
  %50 = load ptr, ptr %49, align 8
  call void %50(ptr noundef nonnull align 8 dereferenceable(16) %40) #18
  %51 = load ptr, ptr %40, align 8, !tbaa !3
  %52 = getelementptr inbounds nuw i8, ptr %51, i64 24
  %53 = load ptr, ptr %52, align 8
  call void %53(ptr noundef nonnull align 8 dereferenceable(16) %40) #18
  br label %_ZNSt12__shared_ptrIN2cv6legacy8tracking7TrackerELN9__gnu_cxx12_Lock_policyE2EED2Ev.exit

54:                                               ; preds = %41
  %55 = load i8, ptr @__libc_single_threaded, align 1, !tbaa !22
  %.not.i.i.i = icmp eq i8 %55, 0
  br i1 %.not.i.i.i, label %58, label %56

56:                                               ; preds = %54
  %57 = add nsw i32 %45, -1
  store i32 %57, ptr %42, align 4, !tbaa !23
  br label %_ZN9__gnu_cxx27__exchange_and_add_dispatchEPii.exit.i.i.i

58:                                               ; preds = %54
  %59 = atomicrmw volatile add ptr %42, i32 -1 acq_rel, align 4
  br label %_ZN9__gnu_cxx27__exchange_and_add_dispatchEPii.exit.i.i.i

_ZN9__gnu_cxx27__exchange_and_add_dispatchEPii.exit.i.i.i: ; preds = %58, %56
  %.0.i.i.i.i = phi i32 [ %45, %56 ], [ %59, %58 ]
  %60 = icmp eq i32 %.0.i.i.i.i, 1
  br i1 %60, label %61, label %_ZNSt12__shared_ptrIN2cv6legacy8tracking7TrackerELN9__gnu_cxx12_Lock_policyE2EED2Ev.exit, !prof !24

61:                                               ; preds = %_ZN9__gnu_cxx27__exchange_and_add_dispatchEPii.exit.i.i.i
  call void @_ZNSt16_Sp_counted_baseILN9__gnu_cxx12_Lock_policyE2EE24_M_release_last_use_coldEv(ptr noundef nonnull align 8 dereferenceable(16) %40) #18
  br label %_ZNSt12__shared_ptrIN2cv6legacy8tracking7TrackerELN9__gnu_cxx12_Lock_policyE2EED2Ev.exit

_ZNSt12__shared_ptrIN2cv6legacy8tracking7TrackerELN9__gnu_cxx12_Lock_policyE2EED2Ev.exit: ; preds = %39, %46, %_ZN9__gnu_cxx27__exchange_and_add_dispatchEPii.exit.i.i.i, %61
  br i1 %38, label %10, label %_ZNSt12__shared_ptrIN2cv6legacy8tracking7TrackerELN9__gnu_cxx12_Lock_policyE2EED2Ev.exit._crit_edge

62:                                               ; preds = %_ZN2cv3PtrINS_6legacy8tracking7TrackerEEC2ERKS4_.exit
  %63 = landingpad { ptr, i32 }
          cleanup
  call void @_ZNSt12__shared_ptrIN2cv6legacy8tracking7TrackerELN9__gnu_cxx12_Lock_policyE2EED2Ev(ptr noundef nonnull align 8 dereferenceable(16) %5) #18
  resume { ptr, i32 } %63

_ZNSt12__shared_ptrIN2cv6legacy8tracking7TrackerELN9__gnu_cxx12_Lock_policyE2EED2Ev.exit._crit_edge: ; preds = %10, %_ZNSt12__shared_ptrIN2cv6legacy8tracking7TrackerELN9__gnu_cxx12_Lock_policyE2EED2Ev.exit, %4
  %.1 = phi i1 [ false, %4 ], [ %38, %_ZNSt12__shared_ptrIN2cv6legacy8tracking7TrackerELN9__gnu_cxx12_Lock_policyE2EED2Ev.exit ], [ %38, %10 ]
  ret i1 %.1
}